target datalayout = "e-m:e-p270:32:32-p271:32:32-p272:64:64-i64:64-i128:128-f80:128-n8:16:32:64-S128"
target triple = "x86_64-unknown-linux-gnu"

%struct.BdrvChild = type { ptr, ptr, ptr, i32, ptr, i64, i64, i8, i8, %struct.anon, %struct.anon.0 }
%struct.anon = type { ptr, ptr }
%struct.anon.0 = type { ptr, ptr }

; Function Attrs: nounwind sspstrong uwtable
define internal ptr @child_bs(ptr noundef %child) #0 {
entry:
  %child.addr = alloca ptr, align 8
  store ptr %child, ptr %child.addr, align 8
  %0 = load ptr, ptr %child.addr, align 8
  %tobool = icmp ne ptr %0, null
  br i1 %tobool, label %cond.true, label %cond.false

cond.true:                                        ; preds = %entry
  %1 = load ptr, ptr %child.addr, align 8
  %bs = getelementptr inbounds %struct.BdrvChild, ptr %1, i32 0, i32 0
  %2 = load ptr, ptr %bs, align 8
  br label %cond.end

cond.false:                                       ; preds = %entry
  br label %cond.end

cond.end:                                         ; preds = %cond.false, %cond.true
  %cond = phi ptr [ %2, %cond.true ], [ null, %cond.false ]
  ret ptr %cond
}

; Function Attrs: nounwind sspstrong uwtable
define dso_local i32 @bdrv_co_block_status_above(ptr noundef %bs, ptr noundef %base, i64 noundef %offset, i64 noundef %bytes, ptr noundef %pnum, ptr noundef %map, ptr noundef %file) #0 {
entry:
  %bs.addr = alloca ptr, align 8
  %base.addr = alloca ptr, align 8
  %offset.addr = alloca i64, align 8
  %bytes.addr = alloca i64, align 8
  %pnum.addr = alloca ptr, align 8
  %map.addr = alloca ptr, align 8
  %file.addr = alloca ptr, align 8
  store ptr %bs, ptr %bs.addr, align 8
  store ptr %base, ptr %base.addr, align 8
  store i64 %offset, ptr %offset.addr, align 8
  store i64 %bytes, ptr %bytes.addr, align 8
  store ptr %pnum, ptr %pnum.addr, align 8
  store ptr %map, ptr %map.addr, align 8
  store ptr %file, ptr %file.addr, align 8
  br label %do.body

do.body:                                          ; preds = %entry
  br label %do.end

do.end:                                           ; preds = %do.body
  %0 = load ptr, ptr %bs.addr, align 8
  %1 = load ptr, ptr %base.addr, align 8
  %2 = load i64, ptr %offset.addr, align 8
  %3 = load i64, ptr %bytes.addr, align 8
  %4 = load ptr, ptr %pnum.addr, align 8
  %5 = load ptr, ptr %map.addr, align 8
  %6 = load ptr, ptr %file.addr, align 8
  %call = call i32 @bdrv_co_common_block_status_above(ptr noundef %0, ptr noundef %1, i1 noundef zeroext false, i1 noundef zeroext true, i64 noundef %2, i64 noundef %3, ptr noundef %4, ptr noundef %5, ptr noundef %6, ptr noundef null)
  ret i32 %call
}

; Function Attrs: nounwind sspstrong uwtable
define internal ptr @bdrv_filter_or_cow_bs(ptr noundef %bs) #0 {
entry:
  %bs.addr = alloca ptr, align 8
  store ptr %bs, ptr %bs.addr, align 8
  br label %do.body

do.body:                                          ; preds = %entry
  br label %do.end

do.end:                                           ; preds = %do.body
  %0 = load ptr, ptr %bs.addr, align 8
  %call = call ptr @bdrv_filter_or_cow_child(ptr noundef %0)
  %call1 = call ptr @child_bs(ptr noundef %call)
  ret ptr %call1
}

; Function Attrs: nounwind sspstrong uwtable
define dso_local i32 @bdrv_co_block_status(ptr noundef %bs, i64 noundef %offset, i64 noundef %bytes, ptr noundef %pnum, ptr noundef %map, ptr noundef %file) #0 {
entry:
  %bs.addr = alloca ptr, align 8
  %offset.addr = alloca i64, align 8
  %bytes.addr = alloca i64, align 8
  %pnum.addr = alloca ptr, align 8
  %map.addr = alloca ptr, align 8
  %file.addr = alloca ptr, align 8
  store ptr %bs, ptr %bs.addr, align 8
  store i64 %offset, ptr %offset.addr, align 8
  store i64 %bytes, ptr %bytes.addr, align 8
  store ptr %pnum, ptr %pnum.addr, align 8
  store ptr %map, ptr %map.addr, align 8
  store ptr %file, ptr %file.addr, align 8
  br label %do.body

do.body:                                          ; preds = %entry
  br label %do.end

do.end:                                           ; preds = %do.body
  %0 = load ptr, ptr %bs.addr, align 8
  %1 = load ptr, ptr %bs.addr, align 8
  %call = call ptr @bdrv_filter_or_cow_bs(ptr noundef %1)
  %2 = load i64, ptr %offset.addr, align 8
  %3 = load i64, ptr %bytes.addr, align 8
  %4 = load ptr, ptr %pnum.addr, align 8
  %5 = load ptr, ptr %map.addr, align 8
  %6 = load ptr, ptr %file.addr, align 8
  %call1 = call i32 @bdrv_co_block_status_above(ptr noundef %0, ptr noundef %call, i64 noundef %2, i64 noundef %3, ptr noundef %4, ptr noundef %5, ptr noundef %6)
  ret i32 %call1
}