; Function Attrs: nounwind sspstrong uwtable
define dso_local i32 @bdrv_co_block_status(ptr noundef %bs, i64 noundef %offset, i64 noundef %bytes, ptr noundef %pnum, ptr noundef %map, ptr noundef %file) #0 {
entry:
  %call.i = tail call ptr @bdrv_filter_or_cow_child(ptr noundef %bs) #15
  %tobool.not.i.i = icmp eq ptr %call.i, null
  br i1 %tobool.not.i.i, label %bdrv_filter_or_cow_bs.exit, label %cond.true.i.i

cond.true.i.i:                                    ; preds = %entry
  %0 = load ptr, ptr %call.i, align 8
  br label %bdrv_filter_or_cow_bs.exit

bdrv_filter_or_cow_bs.exit:                       ; preds = %entry, %cond.true.i.i
  %cond.i.i = phi ptr [ %0, %cond.true.i.i ], [ null, %entry ]
  %call.i2 = tail call i32 @bdrv_co_common_block_status_above(ptr noundef %bs, ptr noundef %cond.i.i, i1 noundef zeroext false, i1 noundef zeroext true, i64 noundef %offset, i64 noundef %bytes, ptr noundef %pnum, ptr noundef %map, ptr noundef %file, ptr noundef null)
  ret i32 %call.i2
}